target datalayout = "e-m:e-p270:32:32-p271:32:32-p272:64:64-i64:64-i128:128-f80:128-n8:16:32:64-S128"
target triple = "x86_64-pc-linux-gnu"

%"struct.nanobind::detail::arg_data" = type { ptr, ptr, ptr, ptr, i8 }
%struct._object = type { i64, ptr }
%struct._typeobject = type { %struct.PyVarObject, ptr, i64, i64, ptr, i64, ptr, ptr, ptr, ptr, ptr, ptr, ptr, ptr, ptr, ptr, ptr, ptr, ptr, i64, ptr, ptr, ptr, ptr, i64, ptr, ptr, ptr, ptr, ptr, ptr, ptr, ptr, ptr, i64, ptr, ptr, ptr, ptr, ptr, ptr, ptr, ptr, ptr, ptr, ptr, i32, ptr, ptr }
%struct.PyVarObject = type { %struct._object, i64 }
%"struct.nanobind::detail::func_data_prelim" = type { [3 x ptr], ptr, ptr, ptr, ptr, i32, i16, i16, ptr, ptr, ptr, [0 x %"struct.nanobind::detail::arg_data"] }

@.str.4 = private unnamed_addr constant [1 x i8] zeroinitializer, align 1
@_Py_NoneStruct = external global %struct._object, align 8
@.str.12 = private unnamed_addr constant [11 x i8] c"__module__\00", align 1
@.str.13 = private unnamed_addr constant [9 x i8] c"__name__\00", align 1
@.str.14 = private unnamed_addr constant [13 x i8] c"__qualname__\00", align 1
@.str.15 = private unnamed_addr constant [8 x i8] c"__doc__\00", align 1
@PyModule_Type = external global %struct._typeobject, align 8
@.str.40 = private unnamed_addr constant [6 x i8] c"%U.%s\00", align 1

; Function Attrs: inlinehint mustprogress nounwind uwtable
define internal noundef i32 @_ZL11_Py_IS_TYPEPK7_objectPK11_typeobject(ptr noundef %0, ptr noundef %1) #12 {
  %3 = alloca ptr, align 8
  %4 = alloca ptr, align 8
  store ptr %0, ptr %3, align 8
  store ptr %1, ptr %4, align 8
  %5 = load ptr, ptr %3, align 8
  %6 = getelementptr inbounds nuw %struct._object, ptr %5, i32 0, i32 1
  %7 = load ptr, ptr %6, align 8
  %8 = load ptr, ptr %4, align 8
  %9 = icmp eq ptr %7, %8
  %10 = zext i1 %9 to i32
  ret i32 %10
}

; Function Attrs: inlinehint mustprogress nounwind uwtable
define internal void @_ZL10_Py_INCREFP7_object(ptr noundef %0) #12 {
  %2 = alloca ptr, align 8
  store ptr %0, ptr %2, align 8
  %3 = load ptr, ptr %2, align 8
  %4 = getelementptr inbounds nuw %struct._object, ptr %3, i32 0, i32 0
  %5 = load i64, ptr %4, align 8
  %6 = add nsw i64 %5, 1
  store i64 %6, ptr %4, align 8
  ret void
}

; Function Attrs: inlinehint mustprogress uwtable
define internal noundef i32 @_ZL19_PyObject_TypeCheckP7_objectP11_typeobject(ptr noundef %0, ptr noundef %1) #3 {
  %3 = alloca ptr, align 8
  %4 = alloca ptr, align 8
  store ptr %0, ptr %3, align 8
  store ptr %1, ptr %4, align 8
  %5 = load ptr, ptr %3, align 8
  %6 = load ptr, ptr %4, align 8
  %7 = call noundef i32 @_ZL11_Py_IS_TYPEPK7_objectPK11_typeobject(ptr noundef %5, ptr noundef %6)
  %8 = icmp ne i32 %7, 0
  br i1 %8, label %16, label %9

9:                                                ; preds = %2
  %10 = load ptr, ptr %3, align 8
  %11 = getelementptr inbounds nuw %struct._object, ptr %10, i32 0, i32 1
  %12 = load ptr, ptr %11, align 8
  %13 = load ptr, ptr %4, align 8
  %14 = call i32 @PyType_IsSubtype(ptr noundef %12, ptr noundef %13)
  %15 = icmp ne i32 %14, 0
  br label %16

16:                                               ; preds = %9, %2
  %17 = phi i1 [ true, %2 ], [ %15, %9 ]
  %18 = zext i1 %17 to i32
  ret i32 %18
}

; Function Attrs: alwaysinline mustprogress nounwind uwtable
define linkonce_odr hidden noundef ptr @_ZN8nanobind6detail12nb_func_dataEPv(ptr noundef %0) #2 comdat {
  %2 = alloca ptr, align 8
  store ptr %0, ptr %2, align 8
  %3 = load ptr, ptr %2, align 8
  %4 = getelementptr inbounds nuw i8, ptr %3, i64 40
  ret ptr %4
}

; Function Attrs: mustprogress uwtable
define internal noundef ptr @_ZN8nanobind6detailL20nb_func_get_qualnameEP7_object(ptr noundef %0) #0 {
  %2 = alloca ptr, align 8
  %3 = alloca ptr, align 8
  %4 = alloca ptr, align 8
  %5 = alloca ptr, align 8
  %6 = alloca i32, align 4
  store ptr %0, ptr %3, align 8
  call void @llvm.lifetime.start.p0(i64 8, ptr %4) #22
  %7 = load ptr, ptr %3, align 8
  %8 = call noundef ptr @_ZN8nanobind6detail12nb_func_dataEPv(ptr noundef %7)
  store ptr %8, ptr %4, align 8
  %9 = load ptr, ptr %4, align 8
  %10 = getelementptr inbounds nuw %"struct.nanobind::detail::func_data_prelim", ptr %9, i32 0, i32 5
  %11 = load i32, ptr %10, align 8
  %12 = and i32 %11, 32
  %13 = icmp ne i32 %12, 0
  br i1 %13, label %14, label %39

14:                                               ; preds = %1
  %15 = load ptr, ptr %4, align 8
  %16 = getelementptr inbounds nuw %"struct.nanobind::detail::func_data_prelim", ptr %15, i32 0, i32 5
  %17 = load i32, ptr %16, align 8
  %18 = and i32 %17, 16
  %19 = icmp ne i32 %18, 0
  br i1 %19, label %20, label %39

20:                                               ; preds = %14
  call void @llvm.lifetime.start.p0(i64 8, ptr %5) #22
  %21 = load ptr, ptr %4, align 8
  %22 = getelementptr inbounds nuw %"struct.nanobind::detail::func_data_prelim", ptr %21, i32 0, i32 10
  %23 = load ptr, ptr %22, align 8
  %24 = call ptr @PyObject_GetAttrString(ptr noundef %23, ptr noundef @.str.14)
  store ptr %24, ptr %5, align 8
  %25 = load ptr, ptr %5, align 8
  %26 = icmp ne ptr %25, null
  br i1 %26, label %27, label %33

27:                                               ; preds = %20
  %28 = load ptr, ptr %5, align 8
  %29 = load ptr, ptr %4, align 8
  %30 = getelementptr inbounds nuw %"struct.nanobind::detail::func_data_prelim", ptr %29, i32 0, i32 8
  %31 = load ptr, ptr %30, align 8
  %32 = call ptr (ptr, ...) @PyUnicode_FromFormat(ptr noundef @.str.40, ptr noundef %28, ptr noundef %31)
  store ptr %32, ptr %2, align 8
  store i32 1, ptr %6, align 4
  br label %38

33:                                               ; preds = %20
  call void @PyErr_Clear()
  %34 = load ptr, ptr %4, align 8
  %35 = getelementptr inbounds nuw %"struct.nanobind::detail::func_data_prelim", ptr %34, i32 0, i32 8
  %36 = load ptr, ptr %35, align 8
  %37 = call ptr @PyUnicode_FromString(ptr noundef %36)
  store ptr %37, ptr %2, align 8
  store i32 1, ptr %6, align 4
  br label %38

38:                                               ; preds = %33, %27
  call void @llvm.lifetime.end.p0(i64 8, ptr %5) #22
  br label %40

39:                                               ; preds = %14, %1
  call void @_ZL10_Py_INCREFP7_object(ptr noundef @_Py_NoneStruct)
  store ptr @_Py_NoneStruct, ptr %2, align 8
  store i32 1, ptr %6, align 4
  br label %40

40:                                               ; preds = %39, %38
  call void @llvm.lifetime.end.p0(i64 8, ptr %4) #22
  %41 = load ptr, ptr %2, align 8
  ret ptr %41
}

; Function Attrs: mustprogress uwtable
define internal noundef ptr @_ZN8nanobind6detailL16nb_func_get_nameEP7_object(ptr noundef %0) #0 {
  %2 = alloca ptr, align 8
  %3 = alloca ptr, align 8
  %4 = alloca ptr, align 8
  store ptr %0, ptr %2, align 8
  call void @llvm.lifetime.start.p0(i64 8, ptr %3) #22
  %5 = load ptr, ptr %2, align 8
  %6 = call noundef ptr @_ZN8nanobind6detail12nb_func_dataEPv(ptr noundef %5)
  store ptr %6, ptr %3, align 8
  call void @llvm.lifetime.start.p0(i64 8, ptr %4) #22
  store ptr @.str.4, ptr %4, align 8
  %7 = load ptr, ptr %3, align 8
  %8 = getelementptr inbounds nuw %"struct.nanobind::detail::func_data_prelim", ptr %7, i32 0, i32 5
  %9 = load i32, ptr %8, align 8
  %10 = and i32 %9, 16
  %11 = icmp ne i32 %10, 0
  br i1 %11, label %12, label %16

12:                                               ; preds = %1
  %13 = load ptr, ptr %3, align 8
  %14 = getelementptr inbounds nuw %"struct.nanobind::detail::func_data_prelim", ptr %13, i32 0, i32 8
  %15 = load ptr, ptr %14, align 8
  store ptr %15, ptr %4, align 8
  br label %16

16:                                               ; preds = %12, %1
  %17 = load ptr, ptr %4, align 8
  %18 = call ptr @PyUnicode_FromString(ptr noundef %17)
  call void @llvm.lifetime.end.p0(i64 8, ptr %4) #22
  call void @llvm.lifetime.end.p0(i64 8, ptr %3) #22
  ret ptr %18
}

; Function Attrs: mustprogress uwtable
define internal noundef ptr @_ZN8nanobind6detailL18nb_func_get_moduleEP7_object(ptr noundef %0) #0 {
  %2 = alloca ptr, align 8
  %3 = alloca ptr, align 8
  %4 = alloca ptr, align 8
  %5 = alloca i32, align 4
  store ptr %0, ptr %3, align 8
  call void @llvm.lifetime.start.p0(i64 8, ptr %4) #22
  %6 = load ptr, ptr %3, align 8
  %7 = call noundef ptr @_ZN8nanobind6detail12nb_func_dataEPv(ptr noundef %6)
  store ptr %7, ptr %4, align 8
  %8 = load ptr, ptr %4, align 8
  %9 = getelementptr inbounds nuw %"struct.nanobind::detail::func_data_prelim", ptr %8, i32 0, i32 5
  %10 = load i32, ptr %9, align 8
  %11 = and i32 %10, 32
  %12 = icmp ne i32 %11, 0
  br i1 %12, label %13, label %24

13:                                               ; preds = %1
  %14 = load ptr, ptr %4, align 8
  %15 = getelementptr inbounds nuw %"struct.nanobind::detail::func_data_prelim", ptr %14, i32 0, i32 10
  %16 = load ptr, ptr %15, align 8
  %17 = load ptr, ptr %4, align 8
  %18 = getelementptr inbounds nuw %"struct.nanobind::detail::func_data_prelim", ptr %17, i32 0, i32 10
  %19 = load ptr, ptr %18, align 8
  %20 = call noundef i32 @_ZL19_PyObject_TypeCheckP7_objectP11_typeobject(ptr noundef %19, ptr noundef @PyModule_Type)
  %21 = icmp ne i32 %20, 0
  %22 = select i1 %21, ptr @.str.13, ptr @.str.12
  %23 = call ptr @PyObject_GetAttrString(ptr noundef %16, ptr noundef %22)
  store ptr %23, ptr %2, align 8
  store i32 1, ptr %5, align 4
  br label %25

24:                                               ; preds = %1
  call void @_ZL10_Py_INCREFP7_object(ptr noundef @_Py_NoneStruct)
  store ptr @_Py_NoneStruct, ptr %2, align 8
  store i32 1, ptr %5, align 4
  br label %25

25:                                               ; preds = %24, %13
  call void @llvm.lifetime.end.p0(i64 8, ptr %4) #22
  %26 = load ptr, ptr %2, align 8
  ret ptr %26
}

; Function Attrs: mustprogress uwtable
define hidden noundef ptr @_ZN8nanobind6detail16nb_func_getattroEP7_objectS2_(ptr noundef %0, ptr noundef %1) #0 {
  %3 = alloca ptr, align 8
  %4 = alloca ptr, align 8
  %5 = alloca ptr, align 8
  %6 = alloca ptr, align 8
  %7 = alloca i32, align 4
  store ptr %0, ptr %4, align 8
  store ptr %1, ptr %5, align 8
  call void @llvm.lifetime.start.p0(i64 8, ptr %6) #22
  %8 = load ptr, ptr %5, align 8
  %9 = call ptr @PyUnicode_AsUTF8AndSize(ptr noundef %8, ptr noundef null)
  store ptr %9, ptr %6, align 8
  %10 = load ptr, ptr %6, align 8
  %11 = icmp ne ptr %10, null
  br i1 %11, label %13, label %12

12:                                               ; preds = %2
  store ptr null, ptr %3, align 8
  store i32 1, ptr %7, align 4
  br label %45

13:                                               ; preds = %2
  %14 = load ptr, ptr %6, align 8
  %15 = call i32 @strcmp(ptr noundef %14, ptr noundef @.str.12) #26
  %16 = icmp eq i32 %15, 0
  br i1 %16, label %17, label %20

17:                                               ; preds = %13
  %18 = load ptr, ptr %4, align 8
  %19 = call noundef ptr @_ZN8nanobind6detailL18nb_func_get_moduleEP7_object(ptr noundef %18)
  store ptr %19, ptr %3, align 8
  store i32 1, ptr %7, align 4
  br label %45

20:                                               ; preds = %13
  %21 = load ptr, ptr %6, align 8
  %22 = call i32 @strcmp(ptr noundef %21, ptr noundef @.str.13) #26
  %23 = icmp eq i32 %22, 0
  br i1 %23, label %24, label %27

24:                                               ; preds = %20
  %25 = load ptr, ptr %4, align 8
  %26 = call noundef ptr @_ZN8nanobind6detailL16nb_func_get_nameEP7_object(ptr noundef %25)
  store ptr %26, ptr %3, align 8
  store i32 1, ptr %7, align 4
  br label %45

27:                                               ; preds = %20
  %28 = load ptr, ptr %6, align 8
  %29 = call i32 @strcmp(ptr noundef %28, ptr noundef @.str.14) #26
  %30 = icmp eq i32 %29, 0
  br i1 %30, label %31, label %34

31:                                               ; preds = %27
  %32 = load ptr, ptr %4, align 8
  %33 = call noundef ptr @_ZN8nanobind6detailL20nb_func_get_qualnameEP7_object(ptr noundef %32)
  store ptr %33, ptr %3, align 8
  store i32 1, ptr %7, align 4
  br label %45

34:                                               ; preds = %27
  %35 = load ptr, ptr %6, align 8
  %36 = call i32 @strcmp(ptr noundef %35, ptr noundef @.str.15) #26
  %37 = icmp eq i32 %36, 0
  br i1 %37, label %38, label %41

38:                                               ; preds = %34
  %39 = load ptr, ptr %4, align 8
  %40 = call noundef ptr @_ZN8nanobind6detail15nb_func_get_docEP7_objectPv(ptr noundef %39, ptr noundef null)
  store ptr %40, ptr %3, align 8
  store i32 1, ptr %7, align 4
  br label %45

41:                                               ; preds = %34
  %42 = load ptr, ptr %4, align 8
  %43 = load ptr, ptr %5, align 8
  %44 = call ptr @PyObject_GenericGetAttr(ptr noundef %42, ptr noundef %43)
  store ptr %44, ptr %3, align 8
  store i32 1, ptr %7, align 4
  br label %45

45:                                               ; preds = %41, %38, %31, %24, %17, %12
  call void @llvm.lifetime.end.p0(i64 8, ptr %6) #22
  %46 = load ptr, ptr %3, align 8
  ret ptr %46
}