; Function Attrs: mustprogress uwtable
define hidden noundef ptr @_ZN8nanobind6detail16nb_func_getattroEP7_objectS2_(ptr noundef %0, ptr noundef %1) local_unnamed_addr #0 {
  %3 = tail call ptr @PyUnicode_AsUTF8AndSize(ptr noundef %1, ptr noundef null)
  %.not = icmp eq ptr %3, null
  br i1 %.not, label %_ZN8nanobind6detailL18nb_func_get_moduleEP7_object.exit, label %4

4:                                                ; preds = %2
  %5 = tail call i32 @strcmp(ptr noundef nonnull dereferenceable(1) %3, ptr noundef nonnull dereferenceable(11) @.str.12) #28
  %6 = icmp eq i32 %5, 0
  br i1 %6, label %7, label %21

7:                                                ; preds = %4
  %8 = getelementptr inbounds nuw i8, ptr %0, i64 96
  %9 = load i32, ptr %8, align 8
  %10 = and i32 %9, 32
  %.not.i = icmp eq i32 %10, 0
  br i1 %.not.i, label %18, label %11

11:                                               ; preds = %7
  %12 = getelementptr inbounds nuw i8, ptr %0, i64 120
  %13 = load ptr, ptr %12, align 8
  %14 = getelementptr i8, ptr %13, i64 8
  %.val.i = load ptr, ptr %14, align 8
  %.not.i.i = icmp eq ptr %.val.i, @PyModule_Type
  br i1 %.not.i.i, label %_ZL19_PyObject_TypeCheckP7_objectP11_typeobject.exit.thread.i, label %_ZL19_PyObject_TypeCheckP7_objectP11_typeobject.exit.i

_ZL19_PyObject_TypeCheckP7_objectP11_typeobject.exit.i: ; preds = %11
  %15 = tail call i32 @PyType_IsSubtype(ptr noundef %.val.i, ptr noundef nonnull @PyModule_Type)
  %.fr.i = freeze i32 %15
  %.not8.i = icmp eq i32 %.fr.i, 0
  %spec.select.i = select i1 %.not8.i, ptr @.str.12, ptr @.str.13
  br label %_ZL19_PyObject_TypeCheckP7_objectP11_typeobject.exit.thread.i

_ZL19_PyObject_TypeCheckP7_objectP11_typeobject.exit.thread.i: ; preds = %_ZL19_PyObject_TypeCheckP7_objectP11_typeobject.exit.i, %11
  %16 = phi ptr [ @.str.13, %11 ], [ %spec.select.i, %_ZL19_PyObject_TypeCheckP7_objectP11_typeobject.exit.i ]
  %17 = tail call ptr @PyObject_GetAttrString(ptr noundef nonnull %13, ptr noundef nonnull %16)
  br label %_ZN8nanobind6detailL18nb_func_get_moduleEP7_object.exit

18:                                               ; preds = %7
  %19 = load i64, ptr @_Py_NoneStruct, align 8
  %20 = add nsw i64 %19, 1
  store i64 %20, ptr @_Py_NoneStruct, align 8
  br label %_ZN8nanobind6detailL18nb_func_get_moduleEP7_object.exit

21:                                               ; preds = %4
  %22 = tail call i32 @strcmp(ptr noundef nonnull dereferenceable(1) %3, ptr noundef nonnull dereferenceable(9) @.str.13) #28
  %23 = icmp eq i32 %22, 0
  br i1 %23, label %24, label %32

24:                                               ; preds = %21
  %25 = getelementptr inbounds nuw i8, ptr %0, i64 96
  %26 = load i32, ptr %25, align 8
  %27 = and i32 %26, 16
  %.not.i14 = icmp eq i32 %27, 0
  br i1 %.not.i14, label %_ZN8nanobind6detailL16nb_func_get_nameEP7_object.exit, label %28

28:                                               ; preds = %24
  %29 = getelementptr inbounds nuw i8, ptr %0, i64 104
  %30 = load ptr, ptr %29, align 8
  br label %_ZN8nanobind6detailL16nb_func_get_nameEP7_object.exit

_ZN8nanobind6detailL16nb_func_get_nameEP7_object.exit: ; preds = %24, %28
  %.0.i15 = phi ptr [ %30, %28 ], [ @.str.4, %24 ]
  %31 = tail call noundef ptr @PyUnicode_FromString(ptr noundef %.0.i15)
  br label %_ZN8nanobind6detailL18nb_func_get_moduleEP7_object.exit

32:                                               ; preds = %21
  %33 = tail call i32 @strcmp(ptr noundef nonnull dereferenceable(1) %3, ptr noundef nonnull dereferenceable(13) @.str.14) #28
  %34 = icmp eq i32 %33, 0
  br i1 %34, label %35, label %54

35:                                               ; preds = %32
  %36 = getelementptr inbounds nuw i8, ptr %0, i64 96
  %37 = load i32, ptr %36, align 8
  %38 = and i32 %37, 48
  %or.cond.not.i = icmp eq i32 %38, 48
  br i1 %or.cond.not.i, label %39, label %51

39:                                               ; preds = %35
  %40 = getelementptr inbounds nuw i8, ptr %0, i64 120
  %41 = load ptr, ptr %40, align 8
  %42 = tail call ptr @PyObject_GetAttrString(ptr noundef %41, ptr noundef nonnull @.str.14)
  %.not11.i = icmp eq ptr %42, null
  br i1 %.not11.i, label %47, label %43

43:                                               ; preds = %39
  %44 = getelementptr inbounds nuw i8, ptr %0, i64 104
  %45 = load ptr, ptr %44, align 8
  %46 = tail call ptr (ptr, ...) @PyUnicode_FromFormat(ptr noundef nonnull @.str.40, ptr noundef nonnull %42, ptr noundef %45)
  br label %_ZN8nanobind6detailL18nb_func_get_moduleEP7_object.exit

47:                                               ; preds = %39
  tail call void @PyErr_Clear()
  %48 = getelementptr inbounds nuw i8, ptr %0, i64 104
  %49 = load ptr, ptr %48, align 8
  %50 = tail call ptr @PyUnicode_FromString(ptr noundef %49)
  br label %_ZN8nanobind6detailL18nb_func_get_moduleEP7_object.exit

51:                                               ; preds = %35
  %52 = load i64, ptr @_Py_NoneStruct, align 8
  %53 = add nsw i64 %52, 1
  store i64 %53, ptr @_Py_NoneStruct, align 8
  br label %_ZN8nanobind6detailL18nb_func_get_moduleEP7_object.exit

54:                                               ; preds = %32
  %55 = tail call i32 @strcmp(ptr noundef nonnull dereferenceable(1) %3, ptr noundef nonnull dereferenceable(8) @.str.15) #28
  %56 = icmp eq i32 %55, 0
  br i1 %56, label %57, label %59

57:                                               ; preds = %54
  %58 = tail call noundef ptr @_ZN8nanobind6detail15nb_func_get_docEP7_objectPv(ptr noundef %0, ptr poison)
  br label %_ZN8nanobind6detailL18nb_func_get_moduleEP7_object.exit

59:                                               ; preds = %54
  %60 = tail call ptr @PyObject_GenericGetAttr(ptr noundef %0, ptr noundef %1)
  br label %_ZN8nanobind6detailL18nb_func_get_moduleEP7_object.exit

_ZN8nanobind6detailL18nb_func_get_moduleEP7_object.exit: ; preds = %51, %47, %43, %18, %_ZL19_PyObject_TypeCheckP7_objectP11_typeobject.exit.thread.i, %2, %59, %57, %_ZN8nanobind6detailL16nb_func_get_nameEP7_object.exit
  %.0 = phi ptr [ %31, %_ZN8nanobind6detailL16nb_func_get_nameEP7_object.exit ], [ %58, %57 ], [ %60, %59 ], [ null, %2 ], [ %17, %_ZL19_PyObject_TypeCheckP7_objectP11_typeobject.exit.thread.i ], [ @_Py_NoneStruct, %18 ], [ @_Py_NoneStruct, %51 ], [ %46, %43 ], [ %50, %47 ]
  ret ptr %.0
}